target datalayout = "e-m:e-p270:32:32-p271:32:32-p272:64:64-i64:64-i128:128-f80:128-n8:16:32:64-S128"
target triple = "x86_64-pc-linux-gnu"

%struct.tsi_fake_frame = type { ptr, i64, i64, i64, i32 }
%struct.tsi_fake_frame_protector = type { %struct.tsi_frame_protector, %struct.tsi_fake_frame, %struct.tsi_fake_frame, i64 }
%struct.tsi_frame_protector = type { ptr }
%"class.std::__cxx11::basic_string" = type { %"struct.std::__cxx11::basic_string<char>::_Alloc_hider", i64, %union.anon }
%"struct.std::__cxx11::basic_string<char>::_Alloc_hider" = type { ptr }
%union.anon = type { i64, [8 x i8] }

@.str.23 = private unnamed_addr constant [26 x i8] c"fake frame needs draining\00", align 1

; Function Attrs: mustprogress nounwind uwtable
define linkonce_odr noundef i64 @_ZNSt11char_traitsIcE6lengthEPKc(ptr noundef %0) #7 comdat align 2 {
  %2 = alloca ptr, align 8
  store ptr %0, ptr %2, align 8, !tbaa !12
  %3 = load ptr, ptr %2, align 8, !tbaa !12
  %4 = call i64 @strlen(ptr noundef %3) #3
  ret i64 %4
}

; Function Attrs: mustprogress nounwind uwtable
define available_externally noundef i64 @_ZNKSt7__cxx1112basic_stringIcSt11char_traitsIcESaIcEE4sizeEv(ptr noundef nonnull align 8 dereferenceable(32) %0) #7 align 2 {
  %2 = alloca ptr, align 8
  store ptr %0, ptr %2, align 8, !tbaa !25
  %3 = load ptr, ptr %2, align 8
  %4 = getelementptr inbounds nuw %"class.std::__cxx11::basic_string", ptr %3, i32 0, i32 1
  %5 = load i64, ptr %4, align 8, !tbaa !87
  ret i64 %5
}

; Function Attrs: mustprogress uwtable
define available_externally noundef nonnull align 8 dereferenceable(32) ptr @_ZNSt7__cxx1112basic_stringIcSt11char_traitsIcESaIcEE6assignEPKc(ptr noundef nonnull align 8 dereferenceable(32) %0, ptr noundef %1) #4 align 2 {
  %3 = alloca ptr, align 8
  %4 = alloca ptr, align 8
  store ptr %0, ptr %3, align 8, !tbaa !25
  store ptr %1, ptr %4, align 8, !tbaa !12
  %5 = load ptr, ptr %3, align 8
  %6 = call noundef i64 @_ZNKSt7__cxx1112basic_stringIcSt11char_traitsIcESaIcEE4sizeEv(ptr noundef nonnull align 8 dereferenceable(32) %5) #3
  %7 = load ptr, ptr %4, align 8, !tbaa !12
  %8 = load ptr, ptr %4, align 8, !tbaa !12
  %9 = call noundef i64 @_ZNSt11char_traitsIcE6lengthEPKc(ptr noundef %8)
  %10 = call noundef nonnull align 8 dereferenceable(32) ptr @_ZNSt7__cxx1112basic_stringIcSt11char_traitsIcESaIcEE10_M_replaceEmmPKcm(ptr noundef nonnull align 8 dereferenceable(32) %5, i64 noundef 0, i64 noundef %6, ptr noundef %7, i64 noundef %9)
  ret ptr %10
}

; Function Attrs: mustprogress nounwind uwtable
define internal void @_ZL20tsi_fake_frame_resetP14tsi_fake_framei(ptr noundef %0, i32 noundef %1) #7 {
  %3 = alloca ptr, align 8
  %4 = alloca i32, align 4
  store ptr %0, ptr %3, align 8, !tbaa !105
  store i32 %1, ptr %4, align 4, !tbaa !23
  %5 = load ptr, ptr %3, align 8, !tbaa !105
  %6 = getelementptr inbounds nuw %struct.tsi_fake_frame, ptr %5, i32 0, i32 3
  store i64 0, ptr %6, align 8, !tbaa !121
  %7 = load i32, ptr %4, align 4, !tbaa !23
  %8 = load ptr, ptr %3, align 8, !tbaa !105
  %9 = getelementptr inbounds nuw %struct.tsi_fake_frame, ptr %8, i32 0, i32 4
  store i32 %7, ptr %9, align 8, !tbaa !119
  %10 = load i32, ptr %4, align 4, !tbaa !23
  %11 = icmp ne i32 %10, 0
  br i1 %11, label %15, label %12

12:                                               ; preds = %2
  %13 = load ptr, ptr %3, align 8, !tbaa !105
  %14 = getelementptr inbounds nuw %struct.tsi_fake_frame, ptr %13, i32 0, i32 1
  store i64 0, ptr %14, align 8, !tbaa !122
  br label %15

15:                                               ; preds = %12, %2
  ret void
}

; Function Attrs: mustprogress uwtable
define available_externally noundef nonnull align 8 dereferenceable(32) ptr @_ZNSt7__cxx1112basic_stringIcSt11char_traitsIcESaIcEEaSEPKc(ptr noundef nonnull align 8 dereferenceable(32) %0, ptr noundef %1) #4 align 2 {
  %3 = alloca ptr, align 8
  %4 = alloca ptr, align 8
  store ptr %0, ptr %3, align 8, !tbaa !25
  store ptr %1, ptr %4, align 8, !tbaa !12
  %5 = load ptr, ptr %3, align 8
  %6 = load ptr, ptr %4, align 8, !tbaa !12
  %7 = call noundef nonnull align 8 dereferenceable(32) ptr @_ZNSt7__cxx1112basic_stringIcSt11char_traitsIcESaIcEE6assignEPKc(ptr noundef nonnull align 8 dereferenceable(32) %5, ptr noundef %6)
  ret ptr %7
}

; Function Attrs: mustprogress uwtable
define internal noundef i32 @_ZL21tsi_fake_frame_encodePhPmP14tsi_fake_framePNSt7__cxx1112basic_stringIcSt11char_traitsIcESaIcEEE(ptr noundef %0, ptr noundef %1, ptr noundef %2, ptr noundef %3) #4 {
  %5 = alloca i32, align 4
  %6 = alloca ptr, align 8
  %7 = alloca ptr, align 8
  %8 = alloca ptr, align 8
  %9 = alloca ptr, align 8
  %10 = alloca i64, align 8
  %11 = alloca i32, align 4
  store ptr %0, ptr %6, align 8, !tbaa !12
  store ptr %1, ptr %7, align 8, !tbaa !43
  store ptr %2, ptr %8, align 8, !tbaa !105
  store ptr %3, ptr %9, align 8, !tbaa !25
  call void @llvm.lifetime.start.p0(i64 8, ptr %10) #3
  %12 = load ptr, ptr %8, align 8, !tbaa !105
  %13 = getelementptr inbounds nuw %struct.tsi_fake_frame, ptr %12, i32 0, i32 1
  %14 = load i64, ptr %13, align 8, !tbaa !122
  %15 = load ptr, ptr %8, align 8, !tbaa !105
  %16 = getelementptr inbounds nuw %struct.tsi_fake_frame, ptr %15, i32 0, i32 3
  %17 = load i64, ptr %16, align 8, !tbaa !121
  %18 = sub i64 %14, %17
  store i64 %18, ptr %10, align 8, !tbaa !14
  %19 = load ptr, ptr %8, align 8, !tbaa !105
  %20 = getelementptr inbounds nuw %struct.tsi_fake_frame, ptr %19, i32 0, i32 4
  %21 = load i32, ptr %20, align 8, !tbaa !119
  %22 = icmp ne i32 %21, 0
  br i1 %22, label %30, label %23

23:                                               ; preds = %4
  %24 = load ptr, ptr %9, align 8, !tbaa !25
  %25 = icmp ne ptr %24, null
  br i1 %25, label %26, label %29

26:                                               ; preds = %23
  %27 = load ptr, ptr %9, align 8, !tbaa !25
  %28 = call noundef nonnull align 8 dereferenceable(32) ptr @_ZNSt7__cxx1112basic_stringIcSt11char_traitsIcESaIcEEaSEPKc(ptr noundef nonnull align 8 dereferenceable(32) %27, ptr noundef @.str.23)
  br label %29

29:                                               ; preds = %26, %23
  store i32 7, ptr %5, align 4
  store i32 1, ptr %11, align 4
  br label %65

30:                                               ; preds = %4
  %31 = load ptr, ptr %7, align 8, !tbaa !43
  %32 = load i64, ptr %31, align 8, !tbaa !14
  %33 = load i64, ptr %10, align 8, !tbaa !14
  %34 = icmp ult i64 %32, %33
  br i1 %34, label %35, label %52

35:                                               ; preds = %30
  %36 = load ptr, ptr %6, align 8, !tbaa !12
  %37 = load ptr, ptr %8, align 8, !tbaa !105
  %38 = getelementptr inbounds nuw %struct.tsi_fake_frame, ptr %37, i32 0, i32 0
  %39 = load ptr, ptr %38, align 8, !tbaa !107
  %40 = load ptr, ptr %8, align 8, !tbaa !105
  %41 = getelementptr inbounds nuw %struct.tsi_fake_frame, ptr %40, i32 0, i32 3
  %42 = load i64, ptr %41, align 8, !tbaa !121
  %43 = getelementptr inbounds nuw i8, ptr %39, i64 %42
  %44 = load ptr, ptr %7, align 8, !tbaa !43
  %45 = load i64, ptr %44, align 8, !tbaa !14
  call void @llvm.memcpy.p0.p0.i64(ptr align 1 %36, ptr align 1 %43, i64 %45, i1 false)
  %46 = load ptr, ptr %7, align 8, !tbaa !43
  %47 = load i64, ptr %46, align 8, !tbaa !14
  %48 = load ptr, ptr %8, align 8, !tbaa !105
  %49 = getelementptr inbounds nuw %struct.tsi_fake_frame, ptr %48, i32 0, i32 3
  %50 = load i64, ptr %49, align 8, !tbaa !121
  %51 = add i64 %50, %47
  store i64 %51, ptr %49, align 8, !tbaa !121
  store i32 4, ptr %5, align 4
  store i32 1, ptr %11, align 4
  br label %65

52:                                               ; preds = %30
  %53 = load ptr, ptr %6, align 8, !tbaa !12
  %54 = load ptr, ptr %8, align 8, !tbaa !105
  %55 = getelementptr inbounds nuw %struct.tsi_fake_frame, ptr %54, i32 0, i32 0
  %56 = load ptr, ptr %55, align 8, !tbaa !107
  %57 = load ptr, ptr %8, align 8, !tbaa !105
  %58 = getelementptr inbounds nuw %struct.tsi_fake_frame, ptr %57, i32 0, i32 3
  %59 = load i64, ptr %58, align 8, !tbaa !121
  %60 = getelementptr inbounds nuw i8, ptr %56, i64 %59
  %61 = load i64, ptr %10, align 8, !tbaa !14
  call void @llvm.memcpy.p0.p0.i64(ptr align 1 %53, ptr align 1 %60, i64 %61, i1 false)
  %62 = load i64, ptr %10, align 8, !tbaa !14
  %63 = load ptr, ptr %7, align 8, !tbaa !43
  store i64 %62, ptr %63, align 8, !tbaa !14
  %64 = load ptr, ptr %8, align 8, !tbaa !105
  call void @_ZL20tsi_fake_frame_resetP14tsi_fake_framei(ptr noundef %64, i32 noundef 0)
  store i32 0, ptr %5, align 4
  store i32 1, ptr %11, align 4
  br label %65

65:                                               ; preds = %52, %35, %29
  call void @llvm.lifetime.end.p0(i64 8, ptr %10) #3
  %66 = load i32, ptr %5, align 4
  ret i32 %66
}

; Function Attrs: mustprogress nounwind uwtable
define internal void @_ZL21store32_little_endianjPh(i32 noundef %0, ptr noundef %1) #7 {
  %3 = alloca i32, align 4
  %4 = alloca ptr, align 8
  store i32 %0, ptr %3, align 4, !tbaa !23
  store ptr %1, ptr %4, align 8, !tbaa !12
  %5 = load i32, ptr %3, align 4, !tbaa !23
  %6 = lshr i32 %5, 24
  %7 = and i32 %6, 255
  %8 = trunc i32 %7 to i8
  %9 = load ptr, ptr %4, align 8, !tbaa !12
  %10 = getelementptr inbounds i8, ptr %9, i64 3
  store i8 %8, ptr %10, align 1, !tbaa !20
  %11 = load i32, ptr %3, align 4, !tbaa !23
  %12 = lshr i32 %11, 16
  %13 = and i32 %12, 255
  %14 = trunc i32 %13 to i8
  %15 = load ptr, ptr %4, align 8, !tbaa !12
  %16 = getelementptr inbounds i8, ptr %15, i64 2
  store i8 %14, ptr %16, align 1, !tbaa !20
  %17 = load i32, ptr %3, align 4, !tbaa !23
  %18 = lshr i32 %17, 8
  %19 = and i32 %18, 255
  %20 = trunc i32 %19 to i8
  %21 = load ptr, ptr %4, align 8, !tbaa !12
  %22 = getelementptr inbounds i8, ptr %21, i64 1
  store i8 %20, ptr %22, align 1, !tbaa !20
  %23 = load i32, ptr %3, align 4, !tbaa !23
  %24 = and i32 %23, 255
  %25 = trunc i32 %24 to i8
  %26 = load ptr, ptr %4, align 8, !tbaa !12
  %27 = getelementptr inbounds i8, ptr %26, i64 0
  store i8 %25, ptr %27, align 1, !tbaa !20
  ret void
}

; Function Attrs: mustprogress uwtable
define internal noundef i32 @_ZL28fake_protector_protect_flushP19tsi_frame_protectorPhPmS2_(ptr noundef %0, ptr noundef %1, ptr noundef %2, ptr noundef %3) #4 {
  %5 = alloca ptr, align 8
  %6 = alloca ptr, align 8
  %7 = alloca ptr, align 8
  %8 = alloca ptr, align 8
  %9 = alloca i32, align 4
  %10 = alloca ptr, align 8
  %11 = alloca ptr, align 8
  store ptr %0, ptr %5, align 8, !tbaa !176
  store ptr %1, ptr %6, align 8, !tbaa !12
  store ptr %2, ptr %7, align 8, !tbaa !43
  store ptr %3, ptr %8, align 8, !tbaa !43
  call void @llvm.lifetime.start.p0(i64 4, ptr %9) #3
  store i32 0, ptr %9, align 4, !tbaa !100
  call void @llvm.lifetime.start.p0(i64 8, ptr %10) #3
  %12 = load ptr, ptr %5, align 8, !tbaa !176
  store ptr %12, ptr %10, align 8, !tbaa !45
  call void @llvm.lifetime.start.p0(i64 8, ptr %11) #3
  %13 = load ptr, ptr %10, align 8, !tbaa !45
  %14 = getelementptr inbounds nuw %struct.tsi_fake_frame_protector, ptr %13, i32 0, i32 1
  store ptr %14, ptr %11, align 8, !tbaa !105
  %15 = load ptr, ptr %11, align 8, !tbaa !105
  %16 = getelementptr inbounds nuw %struct.tsi_fake_frame, ptr %15, i32 0, i32 4
  %17 = load i32, ptr %16, align 8, !tbaa !119
  %18 = icmp ne i32 %17, 0
  br i1 %18, label %36, label %19

19:                                               ; preds = %4
  %20 = load ptr, ptr %11, align 8, !tbaa !105
  %21 = getelementptr inbounds nuw %struct.tsi_fake_frame, ptr %20, i32 0, i32 3
  %22 = load i64, ptr %21, align 8, !tbaa !121
  %23 = load ptr, ptr %11, align 8, !tbaa !105
  %24 = getelementptr inbounds nuw %struct.tsi_fake_frame, ptr %23, i32 0, i32 1
  store i64 %22, ptr %24, align 8, !tbaa !122
  %25 = load ptr, ptr %11, align 8, !tbaa !105
  %26 = getelementptr inbounds nuw %struct.tsi_fake_frame, ptr %25, i32 0, i32 3
  store i64 0, ptr %26, align 8, !tbaa !121
  %27 = load ptr, ptr %11, align 8, !tbaa !105
  %28 = getelementptr inbounds nuw %struct.tsi_fake_frame, ptr %27, i32 0, i32 4
  store i32 1, ptr %28, align 8, !tbaa !119
  %29 = load ptr, ptr %11, align 8, !tbaa !105
  %30 = getelementptr inbounds nuw %struct.tsi_fake_frame, ptr %29, i32 0, i32 1
  %31 = load i64, ptr %30, align 8, !tbaa !122
  %32 = trunc i64 %31 to i32
  %33 = load ptr, ptr %11, align 8, !tbaa !105
  %34 = getelementptr inbounds nuw %struct.tsi_fake_frame, ptr %33, i32 0, i32 0
  %35 = load ptr, ptr %34, align 8, !tbaa !107
  call void @_ZL21store32_little_endianjPh(i32 noundef %32, ptr noundef %35)
  br label %36

36:                                               ; preds = %19, %4
  %37 = load ptr, ptr %6, align 8, !tbaa !12
  %38 = load ptr, ptr %7, align 8, !tbaa !43
  %39 = load ptr, ptr %11, align 8, !tbaa !105
  %40 = call noundef i32 @_ZL21tsi_fake_frame_encodePhPmP14tsi_fake_framePNSt7__cxx1112basic_stringIcSt11char_traitsIcESaIcEEE(ptr noundef %37, ptr noundef %38, ptr noundef %39, ptr noundef null)
  store i32 %40, ptr %9, align 4, !tbaa !100
  %41 = load i32, ptr %9, align 4, !tbaa !100
  %42 = icmp eq i32 %41, 4
  br i1 %42, label %43, label %44

43:                                               ; preds = %36
  store i32 0, ptr %9, align 4, !tbaa !100
  br label %44

44:                                               ; preds = %43, %36
  %45 = load ptr, ptr %11, align 8, !tbaa !105
  %46 = getelementptr inbounds nuw %struct.tsi_fake_frame, ptr %45, i32 0, i32 1
  %47 = load i64, ptr %46, align 8, !tbaa !122
  %48 = load ptr, ptr %11, align 8, !tbaa !105
  %49 = getelementptr inbounds nuw %struct.tsi_fake_frame, ptr %48, i32 0, i32 3
  %50 = load i64, ptr %49, align 8, !tbaa !121
  %51 = sub i64 %47, %50
  %52 = load ptr, ptr %8, align 8, !tbaa !43
  store i64 %51, ptr %52, align 8, !tbaa !14
  %53 = load i32, ptr %9, align 4, !tbaa !100
  call void @llvm.lifetime.end.p0(i64 8, ptr %11) #3
  call void @llvm.lifetime.end.p0(i64 8, ptr %10) #3
  call void @llvm.lifetime.end.p0(i64 4, ptr %9) #3
  ret i32 %53
}