; Function Attrs: mustprogress nofree norecurse nosync nounwind willreturn memory(readwrite, inaccessiblemem: none) uwtable
define internal noundef range(i32 0, 8) i32 @_ZL28fake_protector_protect_flushP19tsi_frame_protectorPhPmS2_(ptr noundef captures(none) %0, ptr noundef writeonly captures(none) %1, ptr noundef captures(none) %2, ptr noundef writeonly captures(none) initializes((0, 8)) %3) #16 {
  %5 = getelementptr inbounds nuw i8, ptr %0, i64 8
  %6 = getelementptr inbounds nuw i8, ptr %0, i64 40
  %7 = load i32, ptr %6, align 8, !tbaa !59
  %.not = icmp eq i32 %7, 0
  br i1 %.not, label %13, label %.thread

.thread:                                          ; preds = %4
  %8 = getelementptr inbounds nuw i8, ptr %0, i64 16
  %9 = load i64, ptr %8, align 8, !tbaa !60
  %10 = getelementptr inbounds nuw i8, ptr %0, i64 32
  %11 = load i64, ptr %10, align 8, !tbaa !58
  %12 = sub i64 %9, %11
  br label %34

13:                                               ; preds = %4
  %14 = getelementptr inbounds nuw i8, ptr %0, i64 32
  %15 = load i64, ptr %14, align 8, !tbaa !58
  %16 = getelementptr inbounds nuw i8, ptr %0, i64 16
  store i64 %15, ptr %16, align 8, !tbaa !60
  store i64 0, ptr %14, align 8, !tbaa !58
  store i32 1, ptr %6, align 8, !tbaa !59
  %17 = load ptr, ptr %5, align 8, !tbaa !54
  %18 = lshr i64 %15, 24
  %19 = trunc i64 %18 to i8
  %20 = getelementptr inbounds nuw i8, ptr %17, i64 3
  store i8 %19, ptr %20, align 1, !tbaa !16
  %21 = lshr i64 %15, 16
  %22 = trunc i64 %21 to i8
  %23 = getelementptr inbounds nuw i8, ptr %17, i64 2
  store i8 %22, ptr %23, align 1, !tbaa !16
  %24 = lshr i64 %15, 8
  %25 = trunc i64 %24 to i8
  %26 = getelementptr inbounds nuw i8, ptr %17, i64 1
  store i8 %25, ptr %26, align 1, !tbaa !16
  %27 = trunc i64 %15 to i8
  store i8 %27, ptr %17, align 1, !tbaa !16
  %.pre = load i32, ptr %6, align 8, !tbaa !59
  %28 = icmp eq i32 %.pre, 0
  %29 = getelementptr inbounds nuw i8, ptr %0, i64 16
  %30 = load i64, ptr %29, align 8, !tbaa !60
  %31 = getelementptr inbounds nuw i8, ptr %0, i64 32
  %32 = load i64, ptr %31, align 8, !tbaa !58
  %33 = sub i64 %30, %32
  br i1 %28, label %_ZL21tsi_fake_frame_encodePhPmP14tsi_fake_framePNSt7__cxx1112basic_stringIcSt11char_traitsIcESaIcEEE.exit.thread, label %34

34:                                               ; preds = %.thread, %13
  %35 = phi i64 [ %12, %.thread ], [ %33, %13 ]
  %36 = phi i64 [ %11, %.thread ], [ %32, %13 ]
  %37 = phi ptr [ %10, %.thread ], [ %31, %13 ]
  %38 = phi ptr [ %8, %.thread ], [ %29, %13 ]
  %39 = load i64, ptr %2, align 8, !tbaa !40
  %40 = icmp ult i64 %39, %35
  %41 = load ptr, ptr %5, align 8, !tbaa !54
  %42 = getelementptr inbounds nuw i8, ptr %41, i64 %36
  br i1 %40, label %44, label %43

43:                                               ; preds = %34
  tail call void @llvm.memcpy.p0.p0.i64(ptr align 1 %1, ptr align 1 %42, i64 %35, i1 false)
  store i64 %35, ptr %2, align 8, !tbaa !40
  store i64 0, ptr %37, align 8, !tbaa !58
  store i32 0, ptr %6, align 8, !tbaa !59
  store i64 0, ptr %38, align 8, !tbaa !60
  br label %_ZL21tsi_fake_frame_encodePhPmP14tsi_fake_framePNSt7__cxx1112basic_stringIcSt11char_traitsIcESaIcEEE.exit.thread

44:                                               ; preds = %34
  tail call void @llvm.memcpy.p0.p0.i64(ptr align 1 %1, ptr align 1 %42, i64 %39, i1 false)
  %45 = load i64, ptr %2, align 8, !tbaa !40
  %46 = load i64, ptr %37, align 8, !tbaa !58
  %47 = add i64 %46, %45
  store i64 %47, ptr %37, align 8, !tbaa !58
  %.pre17 = load i64, ptr %38, align 8, !tbaa !60
  br label %_ZL21tsi_fake_frame_encodePhPmP14tsi_fake_framePNSt7__cxx1112basic_stringIcSt11char_traitsIcESaIcEEE.exit.thread

_ZL21tsi_fake_frame_encodePhPmP14tsi_fake_framePNSt7__cxx1112basic_stringIcSt11char_traitsIcESaIcEEE.exit.thread: ; preds = %13, %43, %44
  %48 = phi i64 [ %47, %44 ], [ %32, %13 ], [ 0, %43 ]
  %49 = phi i64 [ %.pre17, %44 ], [ %30, %13 ], [ 0, %43 ]
  %50 = phi i32 [ 0, %44 ], [ 7, %13 ], [ 0, %43 ]
  %51 = sub i64 %49, %48
  store i64 %51, ptr %3, align 8, !tbaa !40
  ret i32 %50
}